(dp1
I6502917
(lp2
sI6130695
(lp3
I6502917
asI5861897
(lp4
I6371586
aI6502917
aI6039430
aI6631967
asI5821962
(lp5
I6151049
asI5860363
(lp6
sI7118351
(lp7
I7563232
aI7481776
aI7537571
aI7410468
aI7524293
aI7491178
aI7682318
aI7582063
aI7374544
aI7604592
aI7582099
aI7648468
aI7547287
aI7674232
aI7344507
aI7316700
aI7713214
aI7297151
asI6172688
(lp8
I6628430
aI6405055
asI5699091
(lp9
I6502917
aI6039430
aI6312106
aI6155664
aI5926666
aI6302527
asI5509140
(lp10
I6460984
aI6022102
asI6408878
(lp11
I6951632
aI7097809
aI7476363
aI6960437
aI7118910
asI7169560
(lp12
sI6793753
(lp13
sI5367324
(lp14
sI6631967
(lp15
sI6150180
(lp16
I6960437
aI7118910
asI5619237
(lp17
I6149256
aI6481829
aI6155678
asI5619238
(lp18
I6460984
aI6022102
asI7294503
(lp19
sI6524456
(lp20
sI5835817
(lp21
I6065824
aI6371586
aI6502917
aI6798997
aI5995774
aI6631967
asI7279146
(lp22
sI6543879
(lp23
sI5841452
(lp24
I6183067
aI6079821
asI5506611
(lp25
I6065824
aI5860363
aI5788388
aI6019461
aI6130695
aI5835817
aI6062667
aI5699091
aI6155664
aI6416152
aI5949459
aI6126265
aI6113208
aI6019449
aI6074042
aI5812156
aI6196670
aI6502917
asI5414452
(lp26
I5997121
aI5610635
aI5788388
aI6502917
aI6130695
aI6116715
aI5860363
aI5699091
aI6227643
aI6000773
asI6003977
(lp27
I6062681
asI6460984
(lp28
sI7118910
(lp29
sI5997121
(lp30
sI5218376
(lp31
sI6062667
(lp32
sI6174050
(lp33
sI6628430
(lp34
I6742887
asI6386772
(lp35
sI6062681
(lp36
I7156117
asI6818395
(lp37
I7297518
asI6074042
(lp38
I6502917
asI7491178
(lp39
sI6867051
(lp40
sI4849774
(lp41
I5375979
aI5555461
asI5949459
(lp42
I6502917
asI7713214
(lp43
sI6229114
(lp44
sI7297151
(lp45
sI6000773
(lp46
I6227643
aI6798997
asI6929030
(lp47
I7476363
asI5922591
(lp48
I7169560
aI7097809
aI7297518
aI6830936
aI6911345
aI6960437
aI7665303
aI7059352
aI7118910
aI7156117
asI6149256
(lp49
I6652090
asI5275787
(lp50
I6130098
aI5741462
aI6048734
asI6248590
(lp51
I6592822
asI5784088
(lp52
I6460984
aI6238044
asI6798997
(lp53
sI7665303
(lp54
sI6183067
(lp55
sI5946012
(lp56
I6557976
aI6341845
aI6543879
asI6065824
(lp57
I6798997
aI6502917
aI6631967
asI6726306
(lp58
sI5208604
(lp59
I6151049
aI6174050
aI6007187
aI6229114
aI5478606
asI6312106
(lp60
I6798997
asI5942443
(lp61
I6274337
aI7476363
aI6929030
aI6429025
aI7279146
aI7294503
aI6951632
aI7097809
aI6960437
aI6793753
aI7118910
asI5155502
(lp62
I5788388
aI5619237
aI5619238
aI6149256
aI5861897
aI5860363
aI5509140
aI5784088
aI5359357
asI5552816
(lp63
I5860363
aI5949459
aI6155678
asI5534897
(lp64
sI6652082
(lp65
sI6126265
(lp66
I6371586
aI6502917
aI6631967
asI6977722
(lp67
sI6227643
(lp68
I6416152
aI6502917
asI5478606
(lp69
I5804083
asI6632656
(lp70
sI7648468
(lp71
sI6341845
(lp72
sI4965594
(lp73
sI7316700
(lp74
sI4860026
(lp75
sI7374544
(lp76
sI6491362
(lp77
sI5788388
(lp78
I6371586
aI6502917
aI6039430
aI6155664
aI6302527
aI6631967
asI6267858
(lp79
sI6851796
(lp80
sI6951632
(lp81
sI5359357
(lp82
I5552816
asI5995774
(lp83
sI6371586
(lp84
I6502917
asI5555461
(lp85
I6652082
asI4994825
(lp86
I6151049
aI6174050
aI6007187
asI5926666
(lp87
sI5175565
(lp88
I6290334
asI7682318
(lp89
sI6416152
(lp90
sI5479197
(lp91
sI5389957
(lp92
I6151049
aI6174050
aI6007187
aI6003977
asI6274337
(lp93
I7476363
asI7410468
(lp94
sI6554410
(lp95
I6851796
asI5804083
(lp96
sI5610635
(lp97
I6065824
aI6371586
aI5788388
aI6502917
aI6543879
aI5835817
aI5860363
aI6155664
aI6000773
aI5699091
aI5995774
aI6126265
aI6113208
aI6019449
aI6074042
aI6227643
aI5812156
aI6196670
aI6631967
asI6960437
(lp98
I7476363
aI7118910
asI6592822
(lp99
sI6319668
(lp100
sI6302527
(lp101
I6798997
asI7476363
(lp102
sI6079821
(lp103
I6505921
aI6491362
aI6554410
aI6575566
aI6851796
aI6588888
asI6830936
(lp104
sI6197595
(lp105
I7297518
aI6830936
aI6911345
aI6960437
aI7169560
aI7118910
asI6238044
(lp106
sI6557976
(lp107
sI6429025
(lp108
sI5589858
(lp109
sI6742887
(lp110
sI6046056
(lp111
I6960437
aI7118910
asI6116715
(lp112
I6628430
aI6405055
asI6050669
(lp113
sI6247790
(lp114
sI7582063
(lp115
sI7604592
(lp116
sI6911345
(lp117
sI7582099
(lp118
sI6168948
(lp119
sI7674232
(lp120
sI6019449
(lp121
sI7344507
(lp122
sI5477246
(lp123
sI5040000
(lp124
I5534897
aI6726306
asI6019457
(lp125
sI6019461
(lp126
I6502917
aI6196670
asI6039430
(lp127
I6312106
aI6386772
aI6502917
aI6302527
asI6151049
(lp128
sI6155664
(lp129
sI6007187
(lp130
I6062681
aI6247790
asI7156117
(lp131
sI5741462
(lp132
I6340588
aI6867051
aI6319668
asI7547287
(lp133
sI7059352
(lp134
I7665303
asI6290334
(lp135
sI7537571
(lp136
sI6481829
(lp137
sI5132711
(lp138
I6116715
aI5788388
aI5860363
aI5802420
aI6158837
aI6019449
aI5812156
asI5138344
(lp139
I6386772
aI6371586
aI6502917
aI6039430
aI6130695
aI5860363
aI5699091
aI5414452
aI6113208
aI6019449
aI5812156
aI6631967
asI6911132
(lp140
sI5856174
(lp141
I7476363
aI7118910
asI7481776
(lp142
sI6130098
(lp143
I6326211
aI6524456
aI6632656
aI6830936
aI7156117
aI7665303
aI7059352
aI6911132
asI5802420
(lp144
I6798997
aI6742887
asI6155678
(lp145
I6481829
asI4982199
(lp146
I6543879
asI6113208
(lp147
sI4723129
(lp148
I5040000
aI6019457
aI5389957
aI6151049
aI5821962
aI5275787
aI5175565
aI6172688
aI6007187
aI5509140
aI5784088
aI5367324
aI5479197
aI5946012
aI5861897
aI4982199
aI5619238
aI5132711
aI5138344
aI5208604
aI5841452
aI5155502
aI5370842
aI5506611
aI4994825
aI5218376
aI6062667
aI5589858
aI5262802
aI4965594
aI6174050
aI6050669
aI4849774
aI4860026
aI5179389
aI5477246
asI5812156
(lp149
I6126265
aI6227643
aI6502917
asI6196670
(lp150
I6502917
asI6405055
(lp151
I6628430
aI6742887
asI6505921
(lp152
sI6326211
(lp153
I7059352
aI7156117
aI7665303
asI7524293
(lp154
sI6043080
(lp155
I6929030
aI7294503
aI7279146
aI7476363
aI7297518
aI6911345
aI6951632
aI7097809
aI6960437
aI7169560
aI6793753
aI6818395
aI7118910
asI6132685
(lp156
I6429025
aI7476363
aI6960437
aI7118910
asI6575566
(lp157
I6851796
asI7097809
(lp158
sI5262802
(lp159
I6151049
aI5509140
aI5619238
asI6022102
(lp160
I6460984
asI6652090
(lp161
sI6588888
(lp162
sI5370842
(lp163
I6977722
aI6248590
aI7118351
asI6048734
(lp164
sI7563232
(lp165
sI5375979
(lp166
I6929030
aI7476363
aI7118351
aI5856174
aI7169560
aI6793753
aI5922591
aI6274337
aI6818395
aI6150180
aI7294503
aI7279146
aI5942443
aI6408878
aI6960437
aI7118910
aI6326211
aI6043080
aI6132685
aI6951632
aI7097809
aI6267858
aI6830936
aI6197595
aI6429025
aI6046056
aI7297518
aI6911345
aI6168948
asI6340588
(lp167
sI7297518
(lp168
sI6158837
(lp169
I6798997
asI5179389
(lp170
s.