(dp1
I6502917
(lp2
sI7169560
(lp3
sI6130695
(lp4
I6502917
aI6502917
aI6502917
asI5861897
(lp5
I6371586
aI6039430
aI6502917
aI6631967
aI6371586
aI6039430
aI6502917
aI6631967
asI5821962
(lp6
I6151049
asI5860363
(lp7
sI7118351
(lp8
I7674232
aI7682318
aI7713214
aI7297151
aI7316700
aI7344507
aI7374544
aI7410468
aI7481776
aI7491178
aI7524293
aI7537571
aI7547287
aI7563232
aI7582063
aI7582099
aI7604592
aI7648468
aI7674232
aI7682318
aI7713214
aI7297151
aI7316700
aI7344507
aI7374544
aI7410468
aI7481776
aI7491178
aI7524293
aI7537571
aI7547287
aI7563232
aI7582063
aI7582099
aI7604592
aI7648468
asI6172688
(lp9
I6628430
aI6405055
asI5699091
(lp10
I6502917
aI5926666
aI6039430
aI6155664
aI6302527
aI6312106
aI6502917
aI5926666
aI6039430
aI6155664
aI6302527
aI6312106
aI6502917
aI5926666
aI6039430
aI6155664
aI6302527
aI6312106
asI5509140
(lp11
I6022102
aI6460984
aI6022102
aI6460984
aI6022102
aI6460984
asI6408878
(lp12
I7097809
aI7118910
aI7476363
aI6951632
aI6960437
asI5784088
(lp13
I6238044
aI6460984
aI6238044
aI6460984
asI6793753
(lp14
sI5367324
(lp15
sI6631967
(lp16
sI6000773
(lp17
I6227643
aI6798997
asI6150180
(lp18
I7118910
aI6960437
asI5619237
(lp19
I6481829
aI6149256
aI6155678
asI5619238
(lp20
I6022102
aI6460984
aI6022102
aI6460984
aI6022102
aI6460984
asI7294503
(lp21
sI6524456
(lp22
sI5835817
(lp23
I5995774
aI6371586
aI6502917
aI6065824
aI6631967
aI6798997
asI7279146
(lp24
sI6543879
(lp25
sI5841452
(lp26
I6183067
aI6079821
asI5506611
(lp27
I6019449
aI6019461
aI6062667
aI6065824
aI6502917
aI6074042
aI6113208
aI6126265
aI6130695
aI6155664
aI6196670
aI6416152
aI5835817
aI5949459
aI5860363
aI5788388
aI5812156
aI5699091
asI5414452
(lp28
I6502917
aI6116715
aI6130695
aI6227643
aI5610635
aI5997121
aI6000773
aI5860363
aI5788388
aI5699091
asI6003977
(lp29
I6062681
asI6460984
(lp30
sI7118910
(lp31
sI5997121
(lp32
sI5218376
(lp33
sI6062667
(lp34
sI6174050
(lp35
sI6628430
(lp36
I6742887
aI6742887
aI6742887
asI6386772
(lp37
sI6062681
(lp38
I7156117
aI7156117
aI7156117
aI7156117
aI7156117
asI6818395
(lp39
I7297518
asI6074042
(lp40
I6502917
asI7491178
(lp41
sI6867051
(lp42
sI4849774
(lp43
I5375979
aI5555461
asI5949459
(lp44
I6502917
asI7713214
(lp45
sI6229114
(lp46
sI7297151
(lp47
sI5389957
(lp48
I6151049
aI6174050
aI6007187
aI6003977
asI6929030
(lp49
I7476363
asI6149256
(lp50
I6652090
aI6652090
asI5275787
(lp51
I6048734
aI6130098
aI5741462
asI6248590
(lp52
I6592822
asI6557976
(lp53
sI6798997
(lp54
sI7665303
(lp55
sI6183067
(lp56
sI5946012
(lp57
I6341845
aI6543879
aI6557976
asI6065824
(lp58
I6502917
aI6631967
aI6798997
aI6502917
aI6631967
aI6798997
asI6726306
(lp59
sI5208604
(lp60
I6151049
aI6174050
aI6229114
aI5478606
aI6007187
asI6312106
(lp61
I6798997
aI6798997
aI6798997
aI6798997
asI5942443
(lp62
I6929030
aI6951632
aI6960437
aI6274337
aI7097809
aI7118910
aI6429025
aI7279146
aI7294503
aI7476363
aI6793753
asI5155502
(lp63
I5359357
aI6149256
aI5509140
aI5619237
aI5619238
aI5784088
aI5860363
aI5861897
aI5788388
asI5552816
(lp64
I6155678
aI5949459
aI5860363
asI5534897
(lp65
sI6652082
(lp66
sI6126265
(lp67
I6502917
aI6631967
aI6371586
aI6502917
aI6631967
aI6371586
aI6502917
aI6631967
aI6371586
aI6502917
aI6631967
aI6371586
asI6977722
(lp68
sI6227643
(lp69
I6502917
aI6416152
aI6502917
aI6416152
aI6502917
aI6416152
aI6502917
aI6416152
asI5478606
(lp70
I5804083
asI6632656
(lp71
sI7648468
(lp72
sI6341845
(lp73
sI4965594
(lp74
sI7316700
(lp75
sI4860026
(lp76
sI7374544
(lp77
sI6491362
(lp78
sI5788388
(lp79
I6155664
aI6302527
aI6371586
aI6039430
aI6502917
aI6631967
aI6155664
aI6302527
aI6371586
aI6039430
aI6502917
aI6631967
aI6155664
aI6302527
aI6371586
aI6039430
aI6502917
aI6631967
aI6155664
aI6302527
aI6371586
aI6039430
aI6502917
aI6631967
asI6267858
(lp80
sI6851796
(lp81
sI6951632
(lp82
sI5359357
(lp83
I5552816
asI5995774
(lp84
sI6371586
(lp85
I6502917
aI6502917
aI6502917
aI6502917
aI6502917
aI6502917
aI6502917
aI6502917
asI5555461
(lp86
I6652082
asI4994825
(lp87
I6151049
aI6174050
aI6007187
asI5926666
(lp88
sI5175565
(lp89
I6290334
asI7682318
(lp90
sI6416152
(lp91
sI5479197
(lp92
sI5922591
(lp93
I6911345
aI6960437
aI7059352
aI7665303
aI7097809
aI7118910
aI7156117
aI7169560
aI6830936
aI7297518
asI6274337
(lp94
I7476363
asI7410468
(lp95
sI6554410
(lp96
I6851796
asI5804083
(lp97
sI5610635
(lp98
I6019449
aI6065824
aI6502917
aI6074042
aI6543879
aI6113208
aI6126265
aI6155664
aI6196670
aI6631967
aI6227643
aI6371586
aI5835817
aI5995774
aI6000773
aI5860363
aI5788388
aI5812156
aI5699091
asI6960437
(lp99
I7118910
aI7476363
asI6592822
(lp100
sI6319668
(lp101
sI6302527
(lp102
I6798997
aI6798997
aI6798997
aI6798997
aI6798997
aI6798997
aI6798997
asI7476363
(lp103
sI6079821
(lp104
I6491362
aI6505921
aI6554410
aI6575566
aI6588888
aI6851796
asI6830936
(lp105
sI6197595
(lp106
I7118910
aI7169560
aI7297518
aI6911345
aI6960437
aI6830936
asI6238044
(lp107
sI6429025
(lp108
sI5589858
(lp109
sI6742887
(lp110
sI6046056
(lp111
I7118910
aI6960437
asI6116715
(lp112
I6628430
aI6405055
aI6628430
aI6405055
asI6050669
(lp113
sI6247790
(lp114
sI7582063
(lp115
sI7604592
(lp116
sI6911345
(lp117
sI7582099
(lp118
sI6168948
(lp119
sI7674232
(lp120
sI6019449
(lp121
sI7344507
(lp122
sI5477246
(lp123
sI5040000
(lp124
I5534897
aI6726306
asI6019457
(lp125
sI6019461
(lp126
I6502917
aI6196670
asI6039430
(lp127
I6502917
aI6302527
aI6312106
aI6386772
aI6502917
aI6302527
aI6312106
aI6386772
aI6502917
aI6302527
aI6312106
aI6386772
aI6502917
aI6302527
aI6312106
aI6386772
aI6502917
aI6302527
aI6312106
aI6386772
aI6502917
aI6302527
aI6312106
aI6386772
aI6502917
aI6302527
aI6312106
aI6386772
aI6502917
aI6302527
aI6312106
aI6386772
asI6151049
(lp128
sI6155664
(lp129
sI6007187
(lp130
I6247790
aI6062681
aI6247790
aI6062681
aI6247790
aI6062681
aI6247790
aI6062681
asI7156117
(lp131
sI5741462
(lp132
I6319668
aI6340588
aI6867051
asI7547287
(lp133
sI7059352
(lp134
I7665303
asI6290334
(lp135
sI7537571
(lp136
sI6481829
(lp137
sI5132711
(lp138
I6019449
aI6116715
aI6158837
aI5802420
aI5860363
aI5788388
aI5812156
asI5138344
(lp139
I6019449
aI6039430
aI6502917
aI6113208
aI6130695
aI5414452
aI6631967
aI6371586
aI6386772
aI5860363
aI5812156
aI5699091
asI6911132
(lp140
sI5856174
(lp141
I7118910
aI7476363
asI7481776
(lp142
sI6130098
(lp143
I7059352
aI7665303
aI6524456
aI7156117
aI6632656
aI6911132
aI6326211
aI6830936
asI5802420
(lp144
I6742887
aI6798997
asI6155678
(lp145
I6481829
asI4982199
(lp146
I6543879
asI6113208
(lp147
sI4723129
(lp148
I6019457
aI5262802
aI5275787
aI6050669
aI6062667
aI5367324
aI5370842
aI6151049
aI5389957
aI6172688
aI6174050
aI4849774
aI4860026
aI5477246
aI5479197
aI5506611
aI5509140
aI4965594
aI4982199
aI5589858
aI4994825
aI5619238
aI5040000
aI5132711
aI5138344
aI5155502
aI5175565
aI5179389
aI5208604
aI5218376
aI5946012
aI5784088
aI5821962
aI6007187
aI5861897
aI5841452
asI5812156
(lp149
I6227643
aI6502917
aI6126265
aI6227643
aI6502917
aI6126265
aI6227643
aI6502917
aI6126265
asI6196670
(lp150
I6502917
aI6502917
asI6405055
(lp151
I6628430
aI6742887
aI6628430
aI6742887
asI6505921
(lp152
sI6326211
(lp153
I7059352
aI7665303
aI7156117
aI7059352
aI7665303
aI7156117
asI7524293
(lp154
sI6043080
(lp155
I7097809
aI7118910
aI7169560
aI7279146
aI7294503
aI7297518
aI6911345
aI6929030
aI7476363
aI6951632
aI6960437
aI6818395
aI6793753
asI6132685
(lp156
I7118910
aI7476363
aI6960437
aI6429025
asI6575566
(lp157
I6851796
asI7097809
(lp158
sI5262802
(lp159
I6151049
aI5509140
aI5619238
asI6022102
(lp160
I6460984
aI6460984
aI6460984
aI6460984
aI6460984
aI6460984
asI6652090
(lp161
sI6588888
(lp162
sI5370842
(lp163
I7118351
aI6248590
aI6977722
asI6048734
(lp164
sI7563232
(lp165
sI5375979
(lp166
I6043080
aI6046056
aI7097809
aI7118351
aI7118910
aI6132685
aI7169560
aI6150180
aI6168948
aI6197595
aI7279146
aI7294503
aI7297518
aI6267858
aI6274337
aI6911345
aI6326211
aI6929030
aI7476363
aI6951632
aI6960437
aI6408878
aI6429025
aI5942443
aI5922591
aI6830936
aI6818395
aI5856174
aI6793753
asI6340588
(lp167
sI7297518
(lp168
sI6158837
(lp169
I6798997
asI5179389
(lp170
s.